; Function Attrs: mustprogress uwtable
define noundef range(i64 0, -9223372036854775808) i64 @_ZNK11BigUnsigned6toLongEv(ptr noundef nonnull readonly align 8 captures(none) dereferenceable(16) %0) local_unnamed_addr #0 align 2 {
  %2 = getelementptr inbounds nuw i8, ptr %0, i64 4
  %3 = load i32, ptr %2, align 4, !tbaa !14
  switch i32 %3, label %4 [
    i32 0, label %_ZNK11BigUnsigned24convertToSignedPrimitiveIlEET_v.exit
    i32 1, label %_ZNK11BigUnsigned18convertToPrimitiveIlEET_v.exit.i
  ]

4:                                                ; preds = %1
  %5 = tail call ptr @__cxa_allocate_exception(i64 8) #9
  store ptr @.str.6, ptr %5, align 16, !tbaa !17
  tail call void @__cxa_throw(ptr nonnull %5, ptr nonnull @_ZTIPKc, ptr null) #10
  unreachable

_ZNK11BigUnsigned18convertToPrimitiveIlEET_v.exit.i: ; preds = %1
  %6 = getelementptr inbounds nuw i8, ptr %0, i64 8
  %7 = load ptr, ptr %6, align 8, !tbaa !13
  %8 = load i64, ptr %7, align 8, !tbaa !15
  %9 = icmp sgt i64 %8, -1
  br i1 %9, label %_ZNK11BigUnsigned24convertToSignedPrimitiveIlEET_v.exit, label %10

10:                                               ; preds = %_ZNK11BigUnsigned18convertToPrimitiveIlEET_v.exit.i
  %11 = tail call ptr @__cxa_allocate_exception(i64 8) #9
  store ptr @.str.7, ptr %11, align 16, !tbaa !17
  tail call void @__cxa_throw(ptr nonnull %11, ptr nonnull @_ZTIPKc, ptr null) #10
  unreachable

_ZNK11BigUnsigned24convertToSignedPrimitiveIlEET_v.exit: ; preds = %1, %_ZNK11BigUnsigned18convertToPrimitiveIlEET_v.exit.i
  %.04.i3.i = phi i64 [ %8, %_ZNK11BigUnsigned18convertToPrimitiveIlEET_v.exit.i ], [ 0, %1 ]
  ret i64 %.04.i3.i
}